; Function Attrs: mustprogress uwtable
define internal void @_ZN11opencv_testL42gtest_stitchDatasets_affine_EvalGenerator_B5cxx11Ev(ptr dead_on_unwind noalias writable sret(%"class.testing::internal::ParamGenerator.172") align 8 %0) #4 {
  %2 = alloca %"class.testing::internal::CartesianProductHolder2.230", align 8
  call void @llvm.lifetime.start.p0(i64 48, ptr nonnull %2) #30
  store ptr @.str.98, ptr %2, align 8, !tbaa !282, !alias.scope !388
  %3 = getelementptr inbounds nuw i8, ptr %2, i64 8
  store ptr @.str.64, ptr %3, align 8, !tbaa !287, !alias.scope !388
  %4 = getelementptr inbounds nuw i8, ptr %2, i64 16
  store ptr @.str.71, ptr %4, align 8, !tbaa !288, !alias.scope !388
  %5 = getelementptr inbounds nuw i8, ptr %2, i64 24
  store ptr @.str.76, ptr %5, align 8, !tbaa !289, !alias.scope !388
  %6 = getelementptr inbounds nuw i8, ptr %2, i64 32
  store ptr @.str.30, ptr %6, align 8, !tbaa !70, !alias.scope !388
  %7 = getelementptr inbounds nuw i8, ptr %2, i64 40
  store ptr @.str.90, ptr %7, align 8, !tbaa !75, !alias.scope !388
  call void @_ZNK7testing8internal23CartesianProductHolder2INS0_11ValueArray4IPKcS4_S4_S4_EENS0_11ValueArray2IS4_S4_EEEcvNS0_14ParamGeneratorISt5tupleIJT_T0_EEEEINSt7__cxx1112basic_stringIcSt11char_traitsIcESaIcEEESL_EEv(ptr dead_on_unwind writable sret(%"class.testing::internal::ParamGenerator.172") align 8 %0, ptr noundef nonnull align 8 dereferenceable(48) %2)
  call void @llvm.lifetime.end.p0(i64 48, ptr nonnull %2) #30
  ret void
}